; ModuleID = '45/951.c'
source_filename = "45/951.c"
target datalayout = "e-m:e-p270:32:32-p271:32:32-p272:64:64-i64:64-f80:128-n8:16:32:64-S128"
target triple = "x86_64-pc-linux-gnu"

@.str = private unnamed_addr constant [3 x i8] c"%s\00", align 1
@q = common dso_local global [100 x i8] zeroinitializer, align 16
@a = common dso_local global [100 x i8] zeroinitializer, align 16
@xc = common dso_local global [50 x [100 x i8]] zeroinitializer, align 16
@.str.1 = private unnamed_addr constant [3 x i8] c"%d\00", align 1
@b = common dso_local global [100 x i8] zeroinitializer, align 16

; Function Attrs: noinline nounwind uwtable
define dso_local i32 @main() #0 {
  %1 = alloca i32, align 4
  %2 = alloca i32, align 4
  %3 = alloca i32, align 4
  %4 = alloca i32, align 4
  %5 = alloca i32, align 4
  %6 = alloca i32, align 4
  %7 = alloca i32, align 4
  %8 = alloca i32, align 4
  %9 = alloca i32, align 4
  %10 = alloca i32, align 4
  store i32 0, i32* %1, align 4
  %11 = call i32 (i8*, ...) @__isoc99_scanf(i8* getelementptr inbounds ([3 x i8], [3 x i8]* @.str, i64 0, i64 0), [100 x i8]* @q)
  %12 = call i32 (i8*, ...) @__isoc99_scanf(i8* getelementptr inbounds ([3 x i8], [3 x i8]* @.str, i64 0, i64 0), [100 x i8]* @a)
  store i32 0, i32* %2, align 4
  store i32 0, i32* %3, align 4
  store i32 0, i32* %4, align 4
  store i32 0, i32* %5, align 4
  store i32 0, i32* %6, align 4
  %13 = call i64 @strlen(i8* getelementptr inbounds ([100 x i8], [100 x i8]* @q, i64 0, i64 0)) #3
  %14 = trunc i64 %13 to i32
  store i32 %14, i32* %7, align 4
  %15 = call i64 @strlen(i8* getelementptr inbounds ([100 x i8], [100 x i8]* @a, i64 0, i64 0)) #3
  %16 = trunc i64 %15 to i32
  store i32 %16, i32* %8, align 4
  %17 = load i32, i32* %8, align 4
  %18 = load i32, i32* %7, align 4
  %19 = sub nsw i32 %17, %18
  store i32 %19, i32* %9, align 4
  store i32 0, i32* %2, align 4
  br label %20

20:                                               ; preds = %49, %0
  %21 = load i32, i32* %2, align 4
  %22 = load i32, i32* %9, align 4
  %23 = add nsw i32 %22, 1
  %24 = icmp slt i32 %21, %23
  br i1 %24, label %25, label %52

25:                                               ; preds = %20
  store i32 0, i32* %3, align 4
  br label %26

26:                                               ; preds = %43, %25
  %27 = load i32, i32* %3, align 4
  %28 = load i32, i32* %7, align 4
  %29 = icmp slt i32 %27, %28
  br i1 %29, label %30, label %46

30:                                               ; preds = %26
  %31 = load i32, i32* %3, align 4
  %32 = load i32, i32* %4, align 4
  %33 = add nsw i32 %31, %32
  %34 = sext i32 %33 to i64
  %35 = getelementptr inbounds [100 x i8], [100 x i8]* @a, i64 0, i64 %34
  %36 = load i8, i8* %35, align 1
  %37 = load i32, i32* %2, align 4
  %38 = sext i32 %37 to i64
  %39 = getelementptr inbounds [50 x [100 x i8]], [50 x [100 x i8]]* @xc, i64 0, i64 %38
  %40 = load i32, i32* %3, align 4
  %41 = sext i32 %40 to i64
  %42 = getelementptr inbounds [100 x i8], [100 x i8]* %39, i64 0, i64 %41
  store i8 %36, i8* %42, align 1
  br label %43

43:                                               ; preds = %30
  %44 = load i32, i32* %3, align 4
  %45 = add nsw i32 %44, 1
  store i32 %45, i32* %3, align 4
  br label %26

46:                                               ; preds = %26
  %47 = load i32, i32* %4, align 4
  %48 = add nsw i32 %47, 1
  store i32 %48, i32* %4, align 4
  br label %49

49:                                               ; preds = %46
  %50 = load i32, i32* %2, align 4
  %51 = add nsw i32 %50, 1
  store i32 %51, i32* %2, align 4
  br label %20

52:                                               ; preds = %20
  store i32 0, i32* %10, align 4
  br label %53

53:                                               ; preds = %67, %52
  %54 = load i32, i32* %10, align 4
  %55 = load i32, i32* %9, align 4
  %56 = icmp slt i32 %54, %55
  br i1 %56, label %57, label %70

57:                                               ; preds = %53
  %58 = load i32, i32* %10, align 4
  %59 = sext i32 %58 to i64
  %60 = getelementptr inbounds [50 x [100 x i8]], [50 x [100 x i8]]* @xc, i64 0, i64 %59
  %61 = getelementptr inbounds [100 x i8], [100 x i8]* %60, i64 0, i64 0
  %62 = call i32 @strcmp(i8* %61, i8* getelementptr inbounds ([100 x i8], [100 x i8]* @q, i64 0, i64 0)) #3
  store i32 %62, i32* %6, align 4
  %63 = load i32, i32* %6, align 4
  %64 = icmp eq i32 %63, 0
  br i1 %64, label %65, label %66

65:                                               ; preds = %57
  br label %70

66:                                               ; preds = %57
  br label %67

67:                                               ; preds = %66
  %68 = load i32, i32* %10, align 4
  %69 = add nsw i32 %68, 1
  store i32 %69, i32* %10, align 4
  br label %53

70:                                               ; preds = %65, %53
  %71 = load i32, i32* %10, align 4
  %72 = call i32 (i8*, ...) @printf(i8* getelementptr inbounds ([3 x i8], [3 x i8]* @.str.1, i64 0, i64 0), i32 %71)
  ret i32 0
}

declare dso_local i32 @__isoc99_scanf(i8*, ...) #1

; Function Attrs: nounwind readonly
declare dso_local i64 @strlen(i8*) #2

; Function Attrs: nounwind readonly
declare dso_local i32 @strcmp(i8*, i8*) #2

declare dso_local i32 @printf(i8*, ...) #1


!llvm.module.flags = !{!0}
!llvm.ident = !{!1}

!0 = !{i32 1, !"wchar_size", i32 4}
!1 = !{!"clang version 10.0.0-4ubuntu1 "}
